; Function Attrs: mustprogress uwtable
define hidden void @_ZNK5logos5Point7printNNEv(ptr noundef nonnull readonly align 8 captures(none) dereferenceable(48) %0) local_unnamed_addr #5 align 2 {
  %2 = getelementptr inbounds nuw i8, ptr %0, i64 16
  %3 = load ptr, ptr %2, align 8, !tbaa !40
  %4 = getelementptr inbounds nuw i8, ptr %0, i64 24
  %5 = load ptr, ptr %4, align 8, !tbaa !40
  %.not4 = icmp eq ptr %3, %5
  br i1 %.not4, label %._crit_edge, label %.lr.ph

._crit_edge:                                      ; preds = %.lr.ph, %1
  ret void

.lr.ph:                                           ; preds = %1, %.lr.ph
  %.sroa.01.05 = phi ptr [ %7, %.lr.ph ], [ %3, %1 ]
  %6 = load ptr, ptr %.sroa.01.05, align 8, !tbaa !32
  tail call void @_ZNK5logos5Point10printPointEv(ptr noundef nonnull align 8 dereferenceable(48) %6)
  %7 = getelementptr inbounds nuw i8, ptr %.sroa.01.05, i64 8
  %8 = load ptr, ptr %4, align 8, !tbaa !40
  %.not = icmp eq ptr %7, %8
  br i1 %.not, label %._crit_edge, label %.lr.ph, !llvm.loop !71
}